target datalayout = "e-m:e-p270:32:32-p271:32:32-p272:64:64-i64:64-i128:128-f80:128-n8:16:32:64-S128"
target triple = "x86_64-pc-linux-gnu"

%struct.lv_ll_t = type { i32, ptr, ptr }
%struct.lv_style_t = type { ptr, i32, i8 }
%struct._lv_spangroup_t = type { %struct._lv_obj_t, i32, i32, i32, i32, %struct.lv_ll_t, i8 }
%struct._lv_obj_t = type { ptr, ptr, ptr, ptr, ptr, %struct.lv_area_t, i32, i16, i16 }
%struct.lv_area_t = type { i32, i32, i32, i32 }
%struct._lv_span_t = type { ptr, ptr, %struct.lv_style_t, i8, %struct.lv_point_t, i32 }
%struct.lv_point_t = type { i32, i32 }

; Function Attrs: nounwind uwtable
define internal void @refresh_self_size(ptr noundef %0) #0 {
  %2 = alloca ptr, align 8
  %3 = alloca ptr, align 8
  store ptr %0, ptr %2, align 8, !tbaa !3
  call void @llvm.lifetime.start.p0(i64 8, ptr %3) #6
  %4 = load ptr, ptr %2, align 8, !tbaa !3
  store ptr %4, ptr %3, align 8, !tbaa !3
  %5 = load ptr, ptr %3, align 8, !tbaa !3
  %6 = getelementptr inbounds nuw %struct._lv_spangroup_t, ptr %5, i32 0, i32 6
  %7 = load i8, ptr %6, align 8
  %8 = and i8 %7, -9
  %9 = or i8 %8, 8
  store i8 %9, ptr %6, align 8
  %10 = load ptr, ptr %2, align 8, !tbaa !3
  call void @lv_obj_invalidate(ptr noundef %10)
  %11 = load ptr, ptr %2, align 8, !tbaa !3
  %12 = call zeroext i1 @lv_obj_refresh_self_size(ptr noundef %11)
  call void @llvm.lifetime.end.p0(i64 8, ptr %3) #6
  ret void
}

; Function Attrs: nounwind uwtable
define void @lv_spangroup_delete_span(ptr noundef %0, ptr noundef %1) #0 {
  %3 = alloca ptr, align 8
  %4 = alloca ptr, align 8
  %5 = alloca ptr, align 8
  %6 = alloca ptr, align 8
  store ptr %0, ptr %3, align 8, !tbaa !3
  store ptr %1, ptr %4, align 8, !tbaa !3
  %7 = load ptr, ptr %3, align 8, !tbaa !3
  %8 = icmp eq ptr %7, null
  br i1 %8, label %12, label %9

9:                                                ; preds = %2
  %10 = load ptr, ptr %4, align 8, !tbaa !3
  %11 = icmp eq ptr %10, null
  br i1 %11, label %12, label %13

12:                                               ; preds = %9, %2
  br label %60

13:                                               ; preds = %9
  br label %14

14:                                               ; preds = %13
  br label %15

15:                                               ; preds = %14
  call void @llvm.lifetime.start.p0(i64 8, ptr %5) #6
  %16 = load ptr, ptr %3, align 8, !tbaa !3
  store ptr %16, ptr %5, align 8, !tbaa !3
  call void @llvm.lifetime.start.p0(i64 8, ptr %6) #6
  %17 = load ptr, ptr %5, align 8, !tbaa !3
  %18 = getelementptr inbounds nuw %struct._lv_spangroup_t, ptr %17, i32 0, i32 5
  %19 = call ptr @lv_ll_get_head(ptr noundef %18)
  store ptr %19, ptr %6, align 8, !tbaa !3
  br label %20

20:                                               ; preds = %53, %15
  %21 = load ptr, ptr %6, align 8, !tbaa !3
  %22 = icmp ne ptr %21, null
  br i1 %22, label %23, label %58

23:                                               ; preds = %20
  %24 = load ptr, ptr %6, align 8, !tbaa !3
  %25 = load ptr, ptr %4, align 8, !tbaa !3
  %26 = icmp eq ptr %24, %25
  br i1 %26, label %27, label %52

27:                                               ; preds = %23
  %28 = load ptr, ptr %5, align 8, !tbaa !3
  %29 = getelementptr inbounds nuw %struct._lv_spangroup_t, ptr %28, i32 0, i32 5
  %30 = load ptr, ptr %6, align 8, !tbaa !3
  call void @lv_ll_remove(ptr noundef %29, ptr noundef %30)
  %31 = load ptr, ptr %6, align 8, !tbaa !3
  %32 = getelementptr inbounds nuw %struct._lv_span_t, ptr %31, i32 0, i32 0
  %33 = load ptr, ptr %32, align 8, !tbaa !17
  %34 = icmp ne ptr %33, null
  br i1 %34, label %35, label %48

35:                                               ; preds = %27
  %36 = load ptr, ptr %6, align 8, !tbaa !3
  %37 = getelementptr inbounds nuw %struct._lv_span_t, ptr %36, i32 0, i32 3
  %38 = load i8, ptr %37, align 8
  %39 = and i8 %38, 1
  %40 = zext i8 %39 to i32
  %41 = icmp eq i32 %40, 0
  br i1 %41, label %42, label %48

42:                                               ; preds = %35
  %43 = load ptr, ptr %6, align 8, !tbaa !3
  %44 = getelementptr inbounds nuw %struct._lv_span_t, ptr %43, i32 0, i32 0
  %45 = load ptr, ptr %44, align 8, !tbaa !17
  call void @lv_free(ptr noundef %45)
  %46 = load ptr, ptr %6, align 8, !tbaa !3
  %47 = getelementptr inbounds nuw %struct._lv_span_t, ptr %46, i32 0, i32 0
  store ptr null, ptr %47, align 8, !tbaa !17
  br label %48

48:                                               ; preds = %42, %35, %27
  %49 = load ptr, ptr %6, align 8, !tbaa !3
  %50 = getelementptr inbounds nuw %struct._lv_span_t, ptr %49, i32 0, i32 2
  call void @lv_style_reset(ptr noundef %50)
  %51 = load ptr, ptr %6, align 8, !tbaa !3
  call void @lv_free(ptr noundef %51)
  store ptr null, ptr %6, align 8, !tbaa !3
  br label %58

52:                                               ; preds = %23
  br label %53

53:                                               ; preds = %52
  %54 = load ptr, ptr %5, align 8, !tbaa !3
  %55 = getelementptr inbounds nuw %struct._lv_spangroup_t, ptr %54, i32 0, i32 5
  %56 = load ptr, ptr %6, align 8, !tbaa !3
  %57 = call ptr @lv_ll_get_next(ptr noundef %55, ptr noundef %56)
  store ptr %57, ptr %6, align 8, !tbaa !3
  br label %20, !llvm.loop !37

58:                                               ; preds = %48, %20
  %59 = load ptr, ptr %3, align 8, !tbaa !3
  call void @refresh_self_size(ptr noundef %59)
  call void @llvm.lifetime.end.p0(i64 8, ptr %6) #6
  call void @llvm.lifetime.end.p0(i64 8, ptr %5) #6
  br label %60

60:                                               ; preds = %58, %12
  ret void
}