; Function Attrs: nounwind uwtable
define void @lv_spangroup_delete_span(ptr noundef %0, ptr noundef readnone %1) local_unnamed_addr #0 {
  %3 = icmp eq ptr %0, null
  %4 = icmp eq ptr %1, null
  %or.cond = or i1 %3, %4
  br i1 %or.cond, label %25, label %5

5:                                                ; preds = %2
  %6 = getelementptr inbounds nuw i8, ptr %0, i64 80
  %7 = tail call ptr @lv_ll_get_head(ptr noundef nonnull %6) #8
  %.not24 = icmp eq ptr %7, null
  br i1 %.not24, label %.loopexit, label %.lr.ph

.lr.ph:                                           ; preds = %5, %19
  %.025 = phi ptr [ %20, %19 ], [ %7, %5 ]
  %8 = icmp eq ptr %.025, %1
  br i1 %8, label %9, label %19

9:                                                ; preds = %.lr.ph
  tail call void @lv_ll_remove(ptr noundef nonnull %6, ptr noundef nonnull %.025) #8
  %10 = load ptr, ptr %.025, align 8, !tbaa !16
  %.not22 = icmp eq ptr %10, null
  br i1 %.not22, label %17, label %11

11:                                               ; preds = %9
  %12 = getelementptr inbounds nuw i8, ptr %.025, i64 32
  %13 = load i8, ptr %12, align 8
  %14 = and i8 %13, 1
  %15 = icmp eq i8 %14, 0
  br i1 %15, label %16, label %17

16:                                               ; preds = %11
  tail call void @lv_free(ptr noundef nonnull %10) #8
  store ptr null, ptr %.025, align 8, !tbaa !16
  br label %17

17:                                               ; preds = %16, %11, %9
  %18 = getelementptr inbounds nuw i8, ptr %.025, i64 16
  tail call void @lv_style_reset(ptr noundef nonnull %18) #8
  tail call void @lv_free(ptr noundef nonnull %.025) #8
  br label %.loopexit

19:                                               ; preds = %.lr.ph
  %20 = tail call ptr @lv_ll_get_next(ptr noundef nonnull %6, ptr noundef nonnull %.025) #8
  %.not = icmp eq ptr %20, null
  br i1 %.not, label %.loopexit, label %.lr.ph, !llvm.loop !73

.loopexit:                                        ; preds = %19, %5, %17
  %21 = getelementptr inbounds nuw i8, ptr %0, i64 104
  %22 = load i8, ptr %21, align 8
  %23 = or i8 %22, 8
  store i8 %23, ptr %21, align 8
  tail call void @lv_obj_invalidate(ptr noundef %0) #8
  %24 = tail call zeroext i1 @lv_obj_refresh_self_size(ptr noundef %0) #8
  br label %25

25:                                               ; preds = %2, %.loopexit
  ret void
}